; Function Attrs: nounwind uwtable
define ptr @l_Lean_Elab_Command_elabGenInjectiveTheorems___boxed(ptr noundef %0, ptr noundef %1, ptr noundef %2, ptr noundef %3) #0 {
  %5 = tail call ptr @l_Lean_Syntax_getArg(ptr noundef %0, ptr noundef nonnull inttoptr (i64 3 to ptr)) #3
  tail call void @lean_inc_heartbeat() #3
  %6 = tail call noalias ptr @mi_malloc_small(i64 noundef 40) #3
  %7 = icmp eq ptr %6, null
  br i1 %7, label %8, label %l_Lean_Elab_Command_elabGenInjectiveTheorems.exit

8:                                                ; preds = %4
  tail call void @lean_internal_panic_out_of_memory() #4
  unreachable

l_Lean_Elab_Command_elabGenInjectiveTheorems.exit: ; preds = %4
  %9 = getelementptr inbounds nuw i8, ptr %6, i64 4
  store i32 1, ptr %6, align 4, !tbaa !4
  store i32 -184549336, ptr %9, align 4
  %10 = getelementptr inbounds nuw i8, ptr %6, i64 8
  store ptr @l_Lean_Elab_Command_elabGenInjectiveTheorems___lambda__1___boxed, ptr %10, align 8, !tbaa !10
  %11 = getelementptr inbounds nuw i8, ptr %6, i64 16
  store i16 9, ptr %11, align 8, !tbaa !12
  %12 = getelementptr inbounds nuw i8, ptr %6, i64 18
  store i16 2, ptr %12, align 2, !tbaa !12
  %13 = getelementptr inbounds nuw i8, ptr %6, i64 24
  store ptr %5, ptr %13, align 8, !tbaa !10
  %14 = getelementptr inbounds nuw i8, ptr %6, i64 32
  store ptr inttoptr (i64 1 to ptr), ptr %14, align 8, !tbaa !10
  %15 = tail call ptr @l_Lean_Elab_Command_liftTermElabM___rarg(ptr noundef nonnull %6, ptr noundef %1, ptr noundef %2, ptr noundef %3) #3
  %16 = ptrtoint ptr %2 to i64
  %17 = and i64 %16, 1
  %.not = icmp eq i64 %17, 0
  br i1 %.not, label %18, label %lean_dec.exit9

18:                                               ; preds = %l_Lean_Elab_Command_elabGenInjectiveTheorems.exit
  %19 = load i32, ptr %2, align 4, !tbaa !4
  %20 = icmp sgt i32 %19, 1
  br i1 %20, label %21, label %23, !prof !9

21:                                               ; preds = %18
  %22 = add nsw i32 %19, -1
  store i32 %22, ptr %2, align 4, !tbaa !4
  br label %lean_dec.exit9

23:                                               ; preds = %18
  %.not.i = icmp eq i32 %19, 0
  br i1 %.not.i, label %lean_dec.exit9, label %24

24:                                               ; preds = %23
  tail call void @lean_dec_ref_cold(ptr noundef nonnull %2) #3
  br label %lean_dec.exit9

lean_dec.exit9:                                   ; preds = %24, %23, %21, %l_Lean_Elab_Command_elabGenInjectiveTheorems.exit
  %25 = ptrtoint ptr %1 to i64
  %26 = and i64 %25, 1
  %.not14 = icmp eq i64 %26, 0
  br i1 %.not14, label %27, label %lean_dec.exit8

27:                                               ; preds = %lean_dec.exit9
  %28 = load i32, ptr %1, align 4, !tbaa !4
  %29 = icmp sgt i32 %28, 1
  br i1 %29, label %30, label %32, !prof !9

30:                                               ; preds = %27
  %31 = add nsw i32 %28, -1
  store i32 %31, ptr %1, align 4, !tbaa !4
  br label %lean_dec.exit8

32:                                               ; preds = %27
  %.not.i10 = icmp eq i32 %28, 0
  br i1 %.not.i10, label %lean_dec.exit8, label %33

33:                                               ; preds = %32
  tail call void @lean_dec_ref_cold(ptr noundef nonnull %1) #3
  br label %lean_dec.exit8

lean_dec.exit8:                                   ; preds = %33, %32, %30, %lean_dec.exit9
  %34 = ptrtoint ptr %0 to i64
  %35 = and i64 %34, 1
  %.not15 = icmp eq i64 %35, 0
  br i1 %.not15, label %36, label %lean_dec.exit

36:                                               ; preds = %lean_dec.exit8
  %37 = load i32, ptr %0, align 4, !tbaa !4
  %38 = icmp sgt i32 %37, 1
  br i1 %38, label %39, label %41, !prof !9

39:                                               ; preds = %36
  %40 = add nsw i32 %37, -1
  store i32 %40, ptr %0, align 4, !tbaa !4
  br label %lean_dec.exit

41:                                               ; preds = %36
  %.not.i12 = icmp eq i32 %37, 0
  br i1 %.not.i12, label %lean_dec.exit, label %42

42:                                               ; preds = %41
  tail call void @lean_dec_ref_cold(ptr noundef nonnull %0) #3
  br label %lean_dec.exit

lean_dec.exit:                                    ; preds = %42, %41, %39, %lean_dec.exit8
  ret ptr %15
}